(dp0
S'four'
p1
(dp2
S'A'
p3
(dp4
Vfour
p5
(dp6
g5
F0.9717096398479341
sVsix
p7
F0.015559584046547217
sVout
p8
F0.012730776104998598
ssg7
(dp9
g5
F0.013313847422720026
sg7
F0.9822500458642948
sg8
F0.00443610671408344
ssg8
(dp10
g5
F0.008842392944334141
sg7
F0.003747940344369461
sg8
F0.9874096667114979
sssS'pi'
p11
(dp12
g5
F0.2783541122549696
sg7
F0.33182102283930265
sg8
F0.3898248649057278
ssS'B'
p13
(dp14
g5
(dp15
V11
p16
F0.11396911898745703
sV10
p17
F0.01952830586487995
sV13
p18
F0.027552170096608146
sV12
p19
F0.07470347511025673
sV15
p20
F0.0413267455669427
sV14
p21
F0.004291031175392529
sV1
p22
F0.014128926880848087
sV0
p23
F0.013109678384908646
sV3
p24
F0.10042550406177993
sV2
p25
F0.2213054050051533
sV5
p26
F0.040803591081254365
sV4
p27
F0.1482042760824255
sV7
p28
F0.073858276549101
sV6
p29
F0.0013740831082547918
sV9
p30
F0.08418534528971265
sV8
p31
F0.02123406675446889
ssg7
(dp32
g16
F0.006967863015763724
sg17
F0.5322072675518619
sg18
F0.11465755936124096
sg19
F0.006178058089963211
sg20
F0.027445047514772176
sg21
F0.0032940210626591117
sg22
F0.009811014797082794
sg23
F0.09187817054224617
sg24
F0.013541044423553415
sg25
F0.00510304859671388
sg26
F0.07574292692906859
sg27
F0.0030301748065528
sg28
F0.0008941868739978458
sg29
F0.03706308669362892
sg30
F0.0131563404914945
sg31
F0.059030189249837516
ssg8
(dp33
g16
F0.00044458921210965347
sg17
F0.015224633508509479
sg18
F0.006966708426387985
sg19
F0.017200767985234393
sg20
F0.01186213172454945
sg21
F0.6398089477856783
sg22
F0.07404431983939089
sg23
F0.005903068202049094
sg24
F0.00439244632849581
sg25
F0.0028510548029566465
sg26
F0.011147655137982285
sg27
F0.010609280357388156
sg28
F0.0023681212934350843
sg29
F9.281439949677112e-05
sg30
F0.19360275222397974
sg31
F0.0034807087724430404
ssssS'six'
p34
(dp35
g3
(dp36
Vfour
p37
(dp38
g37
F0.9742329102366174
sVsix
p39
F0.021918619895247425
sVout
p40
F0.0038484698681990476
ssg39
(dp41
g37
F0.016897897804967494
sg39
F0.9803638090374055
sg40
F0.002738293157600161
ssg40
(dp42
g37
F0.007725754157850243
sg39
F0.004859809342913359
sg40
F0.9874144364990604
sssg11
(dp43
g37
F0.34289141043914567
sg39
F0.4445806071058515
sg40
F0.21252798245500273
ssg13
(dp44
g37
(dp45
V11
p46
F0.004593571707552063
sV10
p47
F0.020336718948414385
sV13
p48
F0.031513945295159614
sV12
p49
F0.05992154670955286
sV15
p50
F0.2535078322212629
sV14
p51
F0.0047982855990575685
sV1
p52
F0.08437521285285833
sV0
p53
F0.05049105304913723
sV3
p54
F0.003780733131179478
sV2
p55
F0.002456053205257728
sV5
p56
F0.1009229697943253
sV4
p57
F0.1084843634273749
sV7
p58
F0.07967187882687264
sV6
p59
F0.09394655853509132
sV9
p60
F0.07887973213086015
sV8
p61
F0.02231954456602777
ssg39
(dp62
g46
F0.006849309279233353
sg47
F0.4846010757219204
sg48
F0.09728626772822
sg49
F0.0019547503091473526
sg50
F0.004741121274649234
sg51
F0.009943791097044402
sg52
F0.00215388142321299
sg53
F0.03572251842025911
sg54
F0.0719236583828085
sg55
F0.13617523379011937
sg56
F0.016345754208546576
sg57
F0.0013386399016144654
sg58
F0.005025265199628541
sg59
F0.018173309318149918
sg60
F0.05321787543606163
sg61
F0.05454754850934492
ssg40
(dp63
g46
F0.0012235573384426393
sg47
F0.03566537949825548
sg48
F0.002309508017005671
sg49
F0.009083400463375633
sg50
F0.025359477745918884
sg51
F0.7500872024572078
sg52
F0.09247127237896023
sg53
F0.018110012214490195
sg54
F0.0020639633035510183
sg55
F0.0006603197952537195
sg56
F0.004294471339718055
sg57
F0.015053415811219379
sg58
F0.0008030720524829894
sg59
F5.67950534104674e-63
sg60
F0.027559642833464293
sg61
F0.015255304750584675
ssssS'out'
p64
(dp65
g3
(dp66
Vfour
p67
(dp68
g67
F0.9678977332420864
sVsix
p69
F0.01270605863160901
sVout
p70
F0.019396208126120404
ssg69
(dp71
g67
F0.012436352506957363
sg69
F0.9807336224590857
sg70
F0.006830025033993511
ssg70
(dp72
g67
F0.020082260204840854
sg69
F0.007933848576010075
sg70
F0.9719838912190666
sssg11
(dp73
g67
F0.3259369341704408
sg69
F0.3662554242156634
sg70
F0.3078076416138958
ssg13
(dp74
g67
(dp75
V11
p76
F0.0011244752025045086
sV10
p77
F0.02235465834147681
sV13
p78
F0.1329888747295507
sV12
p79
F0.10541522109832403
sV15
p80
F0.10469856657991312
sV14
p81
F0.0037589138547258595
sV1
p82
F0.0043982183324137655
sV0
p83
F0.09038310291667809
sV3
p84
F0.006326339373870479
sV2
p85
F0.029686523294463762
sV5
p86
F0.017346121013590707
sV4
p87
F0.21280483878104706
sV7
p88
F0.049100203454796224
sV6
p89
F0.028070053030022343
sV9
p90
F0.07835982094109016
sV8
p91
F0.11318406905551018
ssg69
(dp92
g76
F0.1359316487728405
sg77
F0.5088150980482696
sg78
F0.04296986684638829
sg79
F0.0006078945454225238
sg80
F0.0034472505484115716
sg81
F0.002025750095360531
sg82
F0.049074916561274204
sg83
F0.013012518587939951
sg84
F0.014864852562684813
sg85
F0.14581114152517796
sg86
F0.0030432329274687384
sg87
F0.00014735497161115979
sg88
F0.0004534289866897987
sg89
F0.05225552392967264
sg90
F0.008404640125555796
sg91
F0.01913488096522855
ssg70
(dp93
g76
F0.00472576942844227
sg77
F0.02342912462553205
sg78
F0.01777100587547504
sg79
F0.028523652678111168
sg80
F0.01431719650706068
sg81
F0.2965300982198232
sg82
F0.09431697257325335
sg83
F0.0064989683621229834
sg84
F0.07447714706815034
sg85
F0.02839937776194198
sg86
F0.10969714692938133
sg87
F0.02014075248942819
sg88
F0.08441966923345937
sg89
F0.0013946618665835026
sg90
F0.18878727841412857
sg91
F0.006571177967059521
ssss.